target datalayout = "e-m:e-p270:32:32-p271:32:32-p272:64:64-i64:64-i128:128-f80:128-n8:16:32:64-S128"
target triple = "x86_64-pc-linux-gnu"

%struct.darktable_t = type { %struct.dt_codepath_t, i32, i32, ptr, ptr, ptr, ptr, ptr, ptr, ptr, ptr, ptr, ptr, ptr, ptr, ptr, ptr, ptr, ptr, ptr, ptr, ptr, ptr, ptr, ptr, ptr, ptr, ptr, ptr, ptr, [64 x %struct.dt_pthread_mutex_t], %struct.dt_pthread_mutex_t, %struct.dt_pthread_mutex_t, %struct.dt_pthread_mutex_t, %struct.dt_pthread_mutex_t, %struct.dt_pthread_mutex_t, ptr, ptr, ptr, ptr, ptr, ptr, ptr, ptr, ptr, ptr, ptr, ptr, ptr, %struct.dt_lua_state_t, ptr, double, ptr, i32, [47 x i32], i32, i32, ptr, ptr, %struct.dt_sys_resources_t, %struct.dt_backthumb_t, %struct.dt_gimp_t }
%struct.dt_codepath_t = type { i8, [3 x i8] }
%struct.dt_pthread_mutex_t = type { %union.pthread_mutex_t }
%union.pthread_mutex_t = type { %struct.__pthread_mutex_s }
%struct.__pthread_mutex_s = type { i32, i32, i32, i32, i32, i16, i16, %struct.__pthread_internal_list }
%struct.__pthread_internal_list = type { ptr, ptr }
%struct.dt_lua_state_t = type { i32 }
%struct.dt_sys_resources_t = type { i64, i64, ptr, ptr, i32 }
%struct.dt_backthumb_t = type { double, double, i32, i32, i32, i32 }
%struct.dt_gimp_t = type { i32, ptr, ptr, i32, i32 }
%struct.dt_selection_t = type { ptr, i32 }
%struct._GList = type { ptr, ptr, ptr }

@darktable = external global %struct.darktable_t, align 8
@.str = private unnamed_addr constant [52 x i8] c"[signal] connect    %s to %s; %s:%d, function: %s()\00", align 1
@.str.1 = private unnamed_addr constant [29 x i8] c"_selection_update_collection\00", align 1
@.str.2 = private unnamed_addr constant [29 x i8] c"DT_SIGNAL_COLLECTION_CHANGED\00", align 1
@.str.3 = private unnamed_addr constant [120 x i8] c"generated/home/dtcxzyw/WorkSpace/Projects/compilers/llvm-opt-benchmark/bench/darktable/darktable/src/common/selection.c\00", align 1
@__FUNCTION__.dt_selection_new = private unnamed_addr constant [17 x i8] c"dt_selection_new\00", align 1

; Function Attrs: nounwind uwtable
define internal void @_selection_update_collection(ptr noundef %0, i32 noundef %1, i32 noundef %2, ptr noundef %3, i32 noundef %4, ptr noundef %5) #0 {
  %7 = alloca ptr, align 8
  %8 = alloca i32, align 4
  %9 = alloca i32, align 4
  %10 = alloca ptr, align 8
  %11 = alloca i32, align 4
  %12 = alloca ptr, align 8
  %13 = alloca ptr, align 8
  store ptr %0, ptr %7, align 8, !tbaa !59
  store i32 %1, ptr %8, align 4, !tbaa !56
  store i32 %2, ptr %9, align 4, !tbaa !56
  store ptr %3, ptr %10, align 8, !tbaa !59
  store i32 %4, ptr %11, align 4, !tbaa !56
  store ptr %5, ptr %12, align 8, !tbaa !59
  call void @llvm.lifetime.start.p0(i64 8, ptr %13) #5
  %14 = load ptr, ptr %12, align 8, !tbaa !59
  store ptr %14, ptr %13, align 8, !tbaa !6
  %15 = load ptr, ptr %13, align 8, !tbaa !6
  %16 = getelementptr inbounds nuw %struct.dt_selection_t, ptr %15, i32 0, i32 0
  %17 = load ptr, ptr %16, align 8, !tbaa !11
  %18 = icmp ne ptr %17, null
  br i1 %18, label %19, label %23

19:                                               ; preds = %6
  %20 = load ptr, ptr %13, align 8, !tbaa !6
  %21 = getelementptr inbounds nuw %struct.dt_selection_t, ptr %20, i32 0, i32 0
  %22 = load ptr, ptr %21, align 8, !tbaa !11
  call void @dt_collection_free(ptr noundef %22)
  br label %23

23:                                               ; preds = %19, %6
  %24 = load ptr, ptr getelementptr inbounds nuw (%struct.darktable_t, ptr @darktable, i32 0, i32 21), align 8, !tbaa !16
  %25 = call ptr @dt_collection_new(ptr noundef %24)
  %26 = load ptr, ptr %13, align 8, !tbaa !6
  %27 = getelementptr inbounds nuw %struct.dt_selection_t, ptr %26, i32 0, i32 0
  store ptr %25, ptr %27, align 8, !tbaa !11
  %28 = load ptr, ptr %13, align 8, !tbaa !6
  %29 = getelementptr inbounds nuw %struct.dt_selection_t, ptr %28, i32 0, i32 0
  %30 = load ptr, ptr %29, align 8, !tbaa !11
  %31 = load ptr, ptr %13, align 8, !tbaa !6
  %32 = getelementptr inbounds nuw %struct.dt_selection_t, ptr %31, i32 0, i32 0
  %33 = load ptr, ptr %32, align 8, !tbaa !11
  %34 = call i32 @dt_collection_get_query_flags(ptr noundef %33)
  %35 = and i32 %34, -3
  call void @dt_collection_set_query_flags(ptr noundef %30, i32 noundef %35)
  %36 = load ptr, ptr %13, align 8, !tbaa !6
  %37 = getelementptr inbounds nuw %struct.dt_selection_t, ptr %36, i32 0, i32 0
  %38 = load ptr, ptr %37, align 8, !tbaa !11
  %39 = call i32 @dt_collection_update(ptr noundef %38)
  call void @llvm.lifetime.end.p0(i64 8, ptr %13) #5
  ret void
}

; Function Attrs: nounwind uwtable
define ptr @dt_selection_new() #0 {
  %1 = alloca ptr, align 8
  %2 = alloca ptr, align 8
  call void @llvm.lifetime.start.p0(i64 8, ptr %1) #5
  %3 = call noalias ptr @g_malloc0(i64 noundef 16) #6
  store ptr %3, ptr %1, align 8, !tbaa !6
  %4 = load ptr, ptr %1, align 8, !tbaa !6
  call void @_selection_update_collection(ptr noundef null, i32 noundef 3, i32 noundef 43, ptr noundef null, i32 noundef -1, ptr noundef %4)
  %5 = load ptr, ptr %1, align 8, !tbaa !6
  %6 = getelementptr inbounds nuw %struct.dt_selection_t, ptr %5, i32 0, i32 1
  store i32 0, ptr %6, align 8, !tbaa !15
  %7 = call i32 @dt_collection_get_selected_count()
  %8 = icmp uge i32 %7, 1
  br i1 %8, label %9, label %24

9:                                                ; preds = %0
  call void @llvm.lifetime.start.p0(i64 8, ptr %2) #5
  %10 = load ptr, ptr getelementptr inbounds nuw (%struct.darktable_t, ptr @darktable, i32 0, i32 21), align 8, !tbaa !16
  %11 = call ptr @dt_collection_get_selected(ptr noundef %10, i32 noundef 1)
  store ptr %11, ptr %2, align 8, !tbaa !52
  %12 = load ptr, ptr %2, align 8, !tbaa !52
  %13 = icmp ne ptr %12, null
  br i1 %13, label %14, label %23

14:                                               ; preds = %9
  %15 = load ptr, ptr %2, align 8, !tbaa !52
  %16 = getelementptr inbounds nuw %struct._GList, ptr %15, i32 0, i32 0
  %17 = load ptr, ptr %16, align 8, !tbaa !53
  %18 = ptrtoint ptr %17 to i64
  %19 = trunc i64 %18 to i32
  %20 = load ptr, ptr %1, align 8, !tbaa !6
  %21 = getelementptr inbounds nuw %struct.dt_selection_t, ptr %20, i32 0, i32 1
  store i32 %19, ptr %21, align 8, !tbaa !15
  %22 = load ptr, ptr %2, align 8, !tbaa !52
  call void @g_list_free(ptr noundef %22)
  br label %23

23:                                               ; preds = %14, %9
  call void @llvm.lifetime.end.p0(i64 8, ptr %2) #5
  br label %24

24:                                               ; preds = %23, %0
  br label %25

25:                                               ; preds = %24
  %26 = load i32, ptr getelementptr inbounds nuw (%struct.darktable_t, ptr @darktable, i32 0, i32 53), align 8, !tbaa !55
  %27 = and i32 %26, 2
  %28 = icmp ne i32 %27, 0
  br i1 %28, label %29, label %46

29:                                               ; preds = %25
  %30 = load i32, ptr getelementptr inbounds ([47 x i32], ptr getelementptr inbounds nuw (%struct.darktable_t, ptr @darktable, i32 0, i32 54), i64 0, i64 7), align 4, !tbaa !56
  %31 = icmp ne i32 %30, 0
  br i1 %31, label %32, label %46

32:                                               ; preds = %29
  br label %33

33:                                               ; preds = %32
  %34 = load i32, ptr getelementptr inbounds nuw (%struct.darktable_t, ptr @darktable, i32 0, i32 2), align 8, !tbaa !57
  %35 = and i32 1048576, %34
  %36 = icmp ne i32 %35, 0
  br i1 %36, label %37, label %43

37:                                               ; preds = %33
  %38 = load i32, ptr getelementptr inbounds nuw (%struct.darktable_t, ptr @darktable, i32 0, i32 2), align 8, !tbaa !57
  %39 = xor i32 %38, -1
  %40 = and i32 0, %39
  %41 = icmp ne i32 %40, 0
  br i1 %41, label %43, label %42

42:                                               ; preds = %37
  call void (ptr, ...) @dt_print_ext(ptr noundef @.str, ptr noundef @.str.1, ptr noundef @.str.2, ptr noundef @.str.3, i32 noundef 151, ptr noundef @__FUNCTION__.dt_selection_new)
  br label %43

43:                                               ; preds = %42, %37, %33
  br label %44

44:                                               ; preds = %43
  br label %45

45:                                               ; preds = %44
  br label %46

46:                                               ; preds = %45, %29, %25
  %47 = load ptr, ptr getelementptr inbounds nuw (%struct.darktable_t, ptr @darktable, i32 0, i32 13), align 8, !tbaa !58
  %48 = load ptr, ptr %1, align 8, !tbaa !6
  call void @dt_control_signal_connect(ptr noundef %47, i32 noundef 7, ptr noundef @_selection_update_collection, ptr noundef %48)
  br label %49

49:                                               ; preds = %46
  br label %50

50:                                               ; preds = %49
  %51 = load ptr, ptr %1, align 8, !tbaa !6
  call void @llvm.lifetime.end.p0(i64 8, ptr %1) #5
  ret ptr %51
}