; Function Attrs: nounwind uwtable
define noundef ptr @dt_selection_new() local_unnamed_addr #1 {
  %1 = tail call noalias dereferenceable_or_null(16) ptr @g_malloc0(i64 noundef 16) #7
  %2 = load ptr, ptr %1, align 8, !tbaa !6
  %.not.i = icmp eq ptr %2, null
  br i1 %.not.i, label %_selection_update_collection.exit, label %3

3:                                                ; preds = %0
  tail call void @dt_collection_free(ptr noundef nonnull %2) #8
  br label %_selection_update_collection.exit

_selection_update_collection.exit:                ; preds = %0, %3
  %4 = load ptr, ptr getelementptr inbounds nuw (i8, ptr @darktable, i64 160), align 8, !tbaa !13
  %5 = tail call ptr @dt_collection_new(ptr noundef %4) #8
  store ptr %5, ptr %1, align 8, !tbaa !6
  %6 = tail call i32 @dt_collection_get_query_flags(ptr noundef %5) #8
  %7 = and i32 %6, -3
  tail call void @dt_collection_set_query_flags(ptr noundef %5, i32 noundef %7) #8
  %8 = tail call i32 @dt_collection_update(ptr noundef %5) #8
  %9 = getelementptr inbounds nuw i8, ptr %1, i64 8
  store i32 0, ptr %9, align 8, !tbaa !50
  %10 = tail call i32 @dt_collection_get_selected_count() #8
  %.not = icmp eq i32 %10, 0
  br i1 %.not, label %18, label %11

11:                                               ; preds = %_selection_update_collection.exit
  %12 = load ptr, ptr getelementptr inbounds nuw (i8, ptr @darktable, i64 160), align 8, !tbaa !13
  %13 = tail call ptr @dt_collection_get_selected(ptr noundef %12, i32 noundef 1) #8
  %.not9 = icmp eq ptr %13, null
  br i1 %.not9, label %18, label %14

14:                                               ; preds = %11
  %15 = load ptr, ptr %13, align 8, !tbaa !51
  %16 = ptrtoint ptr %15 to i64
  %17 = trunc i64 %16 to i32
  store i32 %17, ptr %9, align 8, !tbaa !50
  tail call void @g_list_free(ptr noundef nonnull %13) #8
  br label %18

18:                                               ; preds = %11, %14, %_selection_update_collection.exit
  %19 = load i32, ptr getelementptr inbounds nuw (i8, ptr @darktable, i64 3128), align 8, !tbaa !53
  %20 = and i32 %19, 2
  %21 = icmp ne i32 %20, 0
  %22 = load i32, ptr getelementptr inbounds nuw (i8, ptr @darktable, i64 3160), align 8
  %23 = icmp ne i32 %22, 0
  %or.cond = select i1 %21, i1 %23, i1 false
  br i1 %or.cond, label %24, label %28

24:                                               ; preds = %18
  %25 = load i32, ptr getelementptr inbounds nuw (i8, ptr @darktable, i64 8), align 8, !tbaa !54
  %26 = and i32 %25, 1048576
  %.not10 = icmp eq i32 %26, 0
  br i1 %.not10, label %28, label %27

27:                                               ; preds = %24
  tail call void (ptr, ...) @dt_print_ext(ptr noundef nonnull @.str, ptr noundef nonnull @.str.1, ptr noundef nonnull @.str.2, ptr noundef nonnull @.str.3, i32 noundef 151, ptr noundef nonnull @__FUNCTION__.dt_selection_new) #8
  br label %28

28:                                               ; preds = %24, %27, %18
  %29 = load ptr, ptr getelementptr inbounds nuw (i8, ptr @darktable, i64 96), align 8, !tbaa !55
  tail call void @dt_control_signal_connect(ptr noundef %29, i32 noundef 7, ptr noundef nonnull @_selection_update_collection, ptr noundef nonnull %1) #8
  ret ptr %1
}